; ModuleID = 'source-C-CXX/45/3431.c'
source_filename = "source-C-CXX/45/3431.c"
target datalayout = "e-m:e-p270:32:32-p271:32:32-p272:64:64-i64:64-f80:128-n8:16:32:64-S128"
target triple = "x86_64-pc-linux-gnu"

@__const.main.dx = private unnamed_addr constant [4 x i32] [i32 0, i32 1, i32 0, i32 -1], align 16
@__const.main.dy = private unnamed_addr constant [4 x i32] [i32 1, i32 0, i32 -1, i32 0], align 16
@.str = private unnamed_addr constant [5 x i8] c"%d%d\00", align 1
@.str.1 = private unnamed_addr constant [3 x i8] c"%d\00", align 1
@.str.2 = private unnamed_addr constant [4 x i8] c"%d\0A\00", align 1

; Function Attrs: nofree nounwind sspstrong uwtable
define dso_local i32 @main() local_unnamed_addr #0 {
  %1 = alloca i32, align 4
  %2 = alloca i32, align 4
  %3 = alloca [100 x [100 x i32]], align 16
  %4 = bitcast i32* %1 to i8*
  call void @llvm.lifetime.start.p0i8(i64 4, i8* nonnull %4) #3
  %5 = bitcast i32* %2 to i8*
  call void @llvm.lifetime.start.p0i8(i64 4, i8* nonnull %5) #3
  %6 = bitcast [100 x [100 x i32]]* %3 to i8*
  call void @llvm.lifetime.start.p0i8(i64 40000, i8* nonnull %6) #3
  %7 = call i32 (i8*, ...) @__isoc99_scanf(i8* getelementptr inbounds ([5 x i8], [5 x i8]* @.str, i64 0, i64 0), i32* nonnull %1, i32* nonnull %2)
  %8 = load i32, i32* %1, align 4, !tbaa !5
  %9 = icmp sgt i32 %8, 0
  %10 = load i32, i32* %2, align 4, !tbaa !5
  %11 = icmp sgt i32 %10, 0
  %12 = select i1 %9, i1 %11, i1 false
  br i1 %12, label %13, label %18

13:                                               ; preds = %0, %33
  %14 = phi i32 [ %34, %33 ], [ %8, %0 ]
  %15 = phi i32 [ %35, %33 ], [ %10, %0 ]
  %16 = phi i64 [ %36, %33 ], [ 0, %0 ]
  %17 = icmp sgt i32 %15, 0
  br i1 %17, label %23, label %33

18:                                               ; preds = %33, %0
  %19 = phi i32 [ %10, %0 ], [ %35, %33 ]
  %20 = phi i32 [ %8, %0 ], [ %34, %33 ]
  %21 = mul nsw i32 %19, %20
  %22 = icmp sgt i32 %21, 0
  br i1 %22, label %39, label %86

23:                                               ; preds = %13, %23
  %24 = phi i64 [ %27, %23 ], [ 0, %13 ]
  %25 = getelementptr inbounds [100 x [100 x i32]], [100 x [100 x i32]]* %3, i64 0, i64 %16, i64 %24
  %26 = call i32 (i8*, ...) @__isoc99_scanf(i8* getelementptr inbounds ([3 x i8], [3 x i8]* @.str.1, i64 0, i64 0), i32* nonnull %25)
  %27 = add nuw nsw i64 %24, 1
  %28 = load i32, i32* %2, align 4, !tbaa !5
  %29 = sext i32 %28 to i64
  %30 = icmp slt i64 %27, %29
  br i1 %30, label %23, label %31, !llvm.loop !9

31:                                               ; preds = %23
  %32 = load i32, i32* %1, align 4, !tbaa !5
  br label %33

33:                                               ; preds = %31, %13
  %34 = phi i32 [ %32, %31 ], [ %14, %13 ]
  %35 = phi i32 [ %28, %31 ], [ %15, %13 ]
  %36 = add nuw nsw i64 %16, 1
  %37 = sext i32 %34 to i64
  %38 = icmp slt i64 %36, %37
  br i1 %38, label %13, label %18, !llvm.loop !11

39:                                               ; preds = %18, %72
  %40 = phi i32 [ %73, %72 ], [ 0, %18 ]
  %41 = phi i32 [ %80, %72 ], [ 0, %18 ]
  %42 = phi i32 [ %77, %72 ], [ 0, %18 ]
  %43 = phi i32 [ %81, %72 ], [ 0, %18 ]
  %44 = sext i32 %42 to i64
  %45 = sext i32 %41 to i64
  %46 = getelementptr inbounds [100 x [100 x i32]], [100 x [100 x i32]]* %3, i64 0, i64 %44, i64 %45
  %47 = load i32, i32* %46, align 4, !tbaa !5
  %48 = call i32 (i8*, ...) @printf(i8* nonnull dereferenceable(1) getelementptr inbounds ([4 x i8], [4 x i8]* @.str.2, i64 0, i64 0), i32 %47)
  switch i32 %40, label %72 [
    i32 0, label %49
    i32 1, label %55
    i32 2, label %62
    i32 3, label %68
  ]

49:                                               ; preds = %39
  %50 = add nsw i32 %41, %42
  %51 = load i32, i32* %2, align 4, !tbaa !5
  %52 = add nsw i32 %51, -1
  %53 = icmp eq i32 %50, %52
  %54 = zext i1 %53 to i32
  br label %72

55:                                               ; preds = %39
  %56 = sub nsw i32 %42, %41
  %57 = load i32, i32* %1, align 4, !tbaa !5
  %58 = load i32, i32* %2, align 4, !tbaa !5
  %59 = sub nsw i32 %57, %58
  %60 = icmp eq i32 %56, %59
  %61 = select i1 %60, i32 2, i32 1
  br label %72

62:                                               ; preds = %39
  %63 = add nsw i32 %41, %42
  %64 = load i32, i32* %1, align 4, !tbaa !5
  %65 = add nsw i32 %64, -1
  %66 = icmp eq i32 %63, %65
  %67 = select i1 %66, i32 3, i32 2
  br label %72

68:                                               ; preds = %39
  %69 = sub nsw i32 %42, %41
  %70 = icmp eq i32 %69, 1
  %71 = select i1 %70, i32 0, i32 3
  br label %72

72:                                               ; preds = %62, %55, %49, %68, %39
  %73 = phi i32 [ %40, %39 ], [ %71, %68 ], [ %54, %49 ], [ %61, %55 ], [ %67, %62 ]
  %74 = sext i32 %73 to i64
  %75 = getelementptr inbounds [4 x i32], [4 x i32]* @__const.main.dx, i64 0, i64 %74
  %76 = load i32, i32* %75, align 4, !tbaa !5
  %77 = add nsw i32 %76, %42
  %78 = getelementptr inbounds [4 x i32], [4 x i32]* @__const.main.dy, i64 0, i64 %74
  %79 = load i32, i32* %78, align 4, !tbaa !5
  %80 = add nsw i32 %79, %41
  %81 = add nuw nsw i32 %43, 1
  %82 = load i32, i32* %1, align 4, !tbaa !5
  %83 = load i32, i32* %2, align 4, !tbaa !5
  %84 = mul nsw i32 %83, %82
  %85 = icmp slt i32 %81, %84
  br i1 %85, label %39, label %86, !llvm.loop !13

86:                                               ; preds = %72, %18
  call void @llvm.lifetime.end.p0i8(i64 40000, i8* nonnull %6) #3
  call void @llvm.lifetime.end.p0i8(i64 4, i8* nonnull %5) #3
  call void @llvm.lifetime.end.p0i8(i64 4, i8* nonnull %4) #3
  ret i32 0
}

; Function Attrs: argmemonly mustprogress nofree nosync nounwind willreturn
declare void @llvm.lifetime.start.p0i8(i64 immarg, i8* nocapture) #1

; Function Attrs: nofree nounwind
declare noundef i32 @__isoc99_scanf(i8* nocapture noundef readonly, ...) local_unnamed_addr #2

; Function Attrs: nofree nounwind
declare noundef i32 @printf(i8* nocapture noundef readonly, ...) local_unnamed_addr #2

; Function Attrs: argmemonly mustprogress nofree nosync nounwind willreturn
declare void @llvm.lifetime.end.p0i8(i64 immarg, i8* nocapture) #1


!llvm.module.flags = !{!0, !1, !2, !3}
!llvm.ident = !{!4}

!0 = !{i32 1, !"wchar_size", i32 4}
!1 = !{i32 7, !"PIC Level", i32 2}
!2 = !{i32 7, !"PIE Level", i32 2}
!3 = !{i32 7, !"uwtable", i32 1}
!4 = !{!"clang version 13.0.0"}
!5 = !{!6, !6, i64 0}
!6 = !{!"int", !7, i64 0}
!7 = !{!"omnipotent char", !8, i64 0}
!8 = !{!"Simple C/C++ TBAA"}
!9 = distinct !{!9, !10}
!10 = !{!"llvm.loop.mustprogress"}
!11 = distinct !{!11, !10, !12}
!12 = !{!"llvm.loop.unswitch.partial.disable"}
!13 = distinct !{!13, !10}
